; Function Attrs: nounwind uwtable
define range(i32 0, 2) i32 @SCT_set_log_entry_type(ptr noundef writeonly captures(none) initializes((96, 100)) %0, i32 noundef %1) local_unnamed_addr #0 {
  %3 = getelementptr inbounds nuw i8, ptr %0, i64 96
  store i32 0, ptr %3, align 8, !tbaa !16
  %switch = icmp ult i32 %1, 2
  br i1 %switch, label %4, label %6

4:                                                ; preds = %2
  %5 = getelementptr inbounds nuw i8, ptr %0, i64 88
  store i32 %1, ptr %5, align 8, !tbaa !3
  br label %7

6:                                                ; preds = %2
  tail call void @ERR_new() #7
  tail call void @ERR_set_debug(ptr noundef nonnull @.str, i32 noundef 74, ptr noundef nonnull @__func__.SCT_set_log_entry_type) #7
  tail call void (i32, i32, ptr, ...) @ERR_set_error(i32 noundef 50, i32 noundef 102, ptr noundef null) #7
  br label %7

7:                                                ; preds = %6, %4
  %.0 = phi i32 [ 0, %6 ], [ 1, %4 ]
  ret i32 %.0
}